target datalayout = "e-m:e-p270:32:32-p271:32:32-p272:64:64-i64:64-i128:128-f80:128-n8:16:32:64-S128"
target triple = "x86_64-pc-linux-gnu"

; Function Attrs: mustprogress uwtable
define dso_local noundef zeroext i1 @_ZN4Luau14isTypeUserDataEP9lua_Statei(ptr noundef %0, i32 noundef %1) #3 {
  %3 = alloca i1, align 1
  %4 = alloca ptr, align 8
  %5 = alloca i32, align 4
  store ptr %0, ptr %4, align 8, !tbaa !25
  store i32 %1, ptr %5, align 4, !tbaa !4
  %6 = load ptr, ptr %4, align 8, !tbaa !25
  %7 = load i32, ptr %5, align 4, !tbaa !4
  %8 = call noundef i32 @_Z14lua_isuserdataP9lua_Statei(ptr noundef %6, i32 noundef %7)
  %9 = icmp ne i32 %8, 0
  br i1 %9, label %11, label %10

10:                                               ; preds = %2
  store i1 false, ptr %3, align 1
  br label %16

11:                                               ; preds = %2
  %12 = load ptr, ptr %4, align 8, !tbaa !25
  %13 = load i32, ptr %5, align 4, !tbaa !4
  %14 = call noundef ptr @_Z20lua_touserdatataggedP9lua_Stateii(ptr noundef %12, i32 noundef %13, i32 noundef 42)
  %15 = icmp ne ptr %14, null
  store i1 %15, ptr %3, align 1
  br label %16

16:                                               ; preds = %11, %10
  %17 = load i1, ptr %3, align 1
  ret i1 %17
}