; Function Attrs: mustprogress uwtable
define dso_local noundef zeroext i1 @_ZN4Luau14isTypeUserDataEP9lua_Statei(ptr noundef %0, i32 noundef %1) local_unnamed_addr #2 {
  %3 = tail call noundef i32 @_Z14lua_isuserdataP9lua_Statei(ptr noundef %0, i32 noundef %1)
  %.not = icmp eq i32 %3, 0
  br i1 %.not, label %7, label %4

4:                                                ; preds = %2
  %5 = tail call noundef ptr @_Z20lua_touserdatataggedP9lua_Stateii(ptr noundef %0, i32 noundef %1, i32 noundef 42)
  %6 = icmp ne ptr %5, null
  br label %7

7:                                                ; preds = %2, %4
  %.0 = phi i1 [ %6, %4 ], [ false, %2 ]
  ret i1 %.0
}